target datalayout = "e-m:e-p270:32:32-p271:32:32-p272:64:64-i64:64-i128:128-f80:128-n8:16:32:64-S128"
target triple = "x86_64-pc-linux-gnu"

; Function Attrs: inlinehint mustprogress nounwind uwtable
define internal void @_ZN8LightGBML19HistogramSumReducerEPKcPcii(ptr noundef %0, ptr noundef %1, i32 noundef %2, i32 noundef %3) #4 {
  %5 = alloca ptr, align 8
  %6 = alloca ptr, align 8
  %7 = alloca i32, align 4
  %8 = alloca i32, align 4
  %9 = alloca i32, align 4
  %10 = alloca ptr, align 8
  %11 = alloca ptr, align 8
  store ptr %0, ptr %5, align 8, !tbaa !216
  store ptr %1, ptr %6, align 8, !tbaa !216
  store i32 %2, ptr %7, align 4, !tbaa !149
  store i32 %3, ptr %8, align 4, !tbaa !149
  call void @llvm.lifetime.start.p0(i64 4, ptr %9) #7
  store i32 0, ptr %9, align 4, !tbaa !149
  call void @llvm.lifetime.start.p0(i64 8, ptr %10) #7
  call void @llvm.lifetime.start.p0(i64 8, ptr %11) #7
  br label %12

12:                                               ; preds = %16, %4
  %13 = load i32, ptr %9, align 4, !tbaa !149
  %14 = load i32, ptr %8, align 4, !tbaa !149
  %15 = icmp slt i32 %13, %14
  br i1 %15, label %16, label %35

16:                                               ; preds = %12
  %17 = load ptr, ptr %5, align 8, !tbaa !216
  store ptr %17, ptr %10, align 8, !tbaa !185
  %18 = load ptr, ptr %6, align 8, !tbaa !216
  store ptr %18, ptr %11, align 8, !tbaa !185
  %19 = load ptr, ptr %10, align 8, !tbaa !185
  %20 = load double, ptr %19, align 8, !tbaa !191
  %21 = load ptr, ptr %11, align 8, !tbaa !185
  %22 = load double, ptr %21, align 8, !tbaa !191
  %23 = fadd double %22, %20
  store double %23, ptr %21, align 8, !tbaa !191
  %24 = load i32, ptr %7, align 4, !tbaa !149
  %25 = load ptr, ptr %5, align 8, !tbaa !216
  %26 = sext i32 %24 to i64
  %27 = getelementptr inbounds i8, ptr %25, i64 %26
  store ptr %27, ptr %5, align 8, !tbaa !216
  %28 = load i32, ptr %7, align 4, !tbaa !149
  %29 = load ptr, ptr %6, align 8, !tbaa !216
  %30 = sext i32 %28 to i64
  %31 = getelementptr inbounds i8, ptr %29, i64 %30
  store ptr %31, ptr %6, align 8, !tbaa !216
  %32 = load i32, ptr %7, align 4, !tbaa !149
  %33 = load i32, ptr %9, align 4, !tbaa !149
  %34 = add nsw i32 %33, %32
  store i32 %34, ptr %9, align 4, !tbaa !149
  br label %12, !llvm.loop !506

35:                                               ; preds = %12
  call void @llvm.lifetime.end.p0(i64 8, ptr %11) #7
  call void @llvm.lifetime.end.p0(i64 8, ptr %10) #7
  call void @llvm.lifetime.end.p0(i64 4, ptr %9) #7
  ret void
}