; Function Attrs: inlinehint mustprogress nofree norecurse nosync nounwind memory(argmem: readwrite) uwtable
define internal void @_ZN8LightGBML19HistogramSumReducerEPKcPcii(ptr noundef readonly captures(none) %0, ptr noundef captures(none) %1, i32 noundef %2, i32 noundef %3) #22 {
  %5 = icmp sgt i32 %3, 0
  br i1 %5, label %.lr.ph, label %._crit_edge

.lr.ph:                                           ; preds = %4
  %6 = sext i32 %2 to i64
  br label %7

7:                                                ; preds = %.lr.ph, %7
  %.015 = phi ptr [ %0, %.lr.ph ], [ %11, %7 ]
  %.01114 = phi ptr [ %1, %.lr.ph ], [ %12, %7 ]
  %.01213 = phi i32 [ 0, %.lr.ph ], [ %13, %7 ]
  %8 = load double, ptr %.015, align 8, !tbaa !285
  %9 = load double, ptr %.01114, align 8, !tbaa !285
  %10 = fadd double %8, %9
  store double %10, ptr %.01114, align 8, !tbaa !285
  %11 = getelementptr inbounds i8, ptr %.015, i64 %6
  %12 = getelementptr inbounds i8, ptr %.01114, i64 %6
  %13 = add nsw i32 %.01213, %2
  %14 = icmp slt i32 %13, %3
  br i1 %14, label %7, label %._crit_edge, !llvm.loop !333

._crit_edge:                                      ; preds = %7, %4
  ret void
}